; Function Attrs: mustprogress nofree norecurse nosync nounwind willreturn memory(read, inaccessiblemem: none) uwtable
define dso_local noundef zeroext i1 @_ZNK4llvm12MachineInstr27isCandidateForCallSiteEntryENS0_9QueryTypeE(ptr nocapture noundef nonnull readonly align 8 dereferenceable(70) %0, i32 noundef %1) local_unnamed_addr #3 align 2 {
  %3 = icmp eq i32 %1, 0
  br i1 %3, label %11, label %4

4:                                                ; preds = %2
  %5 = getelementptr inbounds nuw i8, ptr %0, i64 44
  %6 = load i32, ptr %5, align 4
  %7 = and i32 %6, 12
  %8 = icmp eq i32 %7, 0
  %9 = and i32 %6, 4
  %10 = icmp ne i32 %9, 0
  %or.cond.i.i = or i1 %8, %10
  br i1 %or.cond.i.i, label %11, label %17

11:                                               ; preds = %4, %2
  %12 = getelementptr inbounds nuw i8, ptr %0, i64 16
  %13 = load ptr, ptr %12, align 8
  %14 = getelementptr inbounds nuw i8, ptr %13, i64 16
  %15 = load i64, ptr %14, align 8
  %16 = and i64 %15, 128
  %.not = icmp eq i64 %16, 0
  br i1 %.not, label %_ZNK4llvm12MachineInstr6isCallENS0_9QueryTypeE.exit.thread5, label %_ZNK4llvm12MachineInstr6isCallENS0_9QueryTypeE.exit.thread

17:                                               ; preds = %4
  switch i32 %1, label %_ZNK4llvm12MachineInstr6isCallENS0_9QueryTypeE.exit.thread5 [
    i32 2, label %.split.us.split.i.i.i
    i32 1, label %.split.split.us.i.i.i
  ]

.split.us.split.i.i.i:                            ; preds = %17, %31
  %.sroa.0.0.us.i.i.i = phi ptr [ %33, %31 ], [ %0, %17 ]
  %18 = getelementptr inbounds nuw i8, ptr %.sroa.0.0.us.i.i.i, i64 16
  %19 = load ptr, ptr %18, align 8
  %20 = getelementptr inbounds nuw i8, ptr %19, i64 16
  %21 = load i64, ptr %20, align 8
  %22 = and i64 %21, 128
  %.not.us.i.i.i = icmp eq i64 %22, 0
  br i1 %.not.us.i.i.i, label %23, label %27

23:                                               ; preds = %.split.us.split.i.i.i
  %24 = getelementptr inbounds nuw i8, ptr %.sroa.0.0.us.i.i.i, i64 68
  %25 = load i16, ptr %24, align 4
  %26 = icmp eq i16 %25, 20
  br i1 %26, label %27, label %_ZNK4llvm12MachineInstr6isCallENS0_9QueryTypeE.exit.thread5

27:                                               ; preds = %23, %.split.us.split.i.i.i
  %28 = getelementptr inbounds nuw i8, ptr %.sroa.0.0.us.i.i.i, i64 44
  %29 = load i32, ptr %28, align 4
  %30 = and i32 %29, 8
  %.not8.us.i.i.i = icmp eq i32 %30, 0
  br i1 %.not8.us.i.i.i, label %_ZNK4llvm12MachineInstr6isCallENS0_9QueryTypeE.exit, label %31

31:                                               ; preds = %27
  %32 = getelementptr inbounds nuw i8, ptr %.sroa.0.0.us.i.i.i, i64 8
  %33 = load ptr, ptr %32, align 8
  br label %.split.us.split.i.i.i, !llvm.loop !21

.split.split.us.i.i.i:                            ; preds = %17
  %34 = getelementptr inbounds nuw i8, ptr %0, i64 16
  %35 = load ptr, ptr %34, align 8
  %36 = getelementptr inbounds nuw i8, ptr %35, i64 16
  %37 = load i64, ptr %36, align 8
  %38 = and i64 %37, 128
  %.not.us1214.i.i.i = icmp eq i64 %38, 0
  br i1 %.not.us1214.i.i.i, label %.lr.ph.i.i.i, label %_ZNK4llvm12MachineInstr6isCallENS0_9QueryTypeE.exit.thread

.lr.ph.i.i.i:                                     ; preds = %.split.split.us.i.i.i, %42
  %.sroa.0.0.us1115.i.i.i = phi ptr [ %44, %42 ], [ %0, %.split.split.us.i.i.i ]
  %39 = getelementptr inbounds nuw i8, ptr %.sroa.0.0.us1115.i.i.i, i64 44
  %40 = load i32, ptr %39, align 4
  %41 = and i32 %40, 8
  %.not8.us13.i.i.i = icmp eq i32 %41, 0
  br i1 %.not8.us13.i.i.i, label %_ZNK4llvm12MachineInstr6isCallENS0_9QueryTypeE.exit, label %42

42:                                               ; preds = %.lr.ph.i.i.i
  %43 = getelementptr inbounds nuw i8, ptr %.sroa.0.0.us1115.i.i.i, i64 8
  %44 = load ptr, ptr %43, align 8
  %45 = getelementptr inbounds nuw i8, ptr %44, i64 16
  %46 = load ptr, ptr %45, align 8
  %47 = getelementptr inbounds nuw i8, ptr %46, i64 16
  %48 = load i64, ptr %47, align 8
  %49 = and i64 %48, 128
  %.not.us12.i.i.i = icmp eq i64 %49, 0
  br i1 %.not.us12.i.i.i, label %.lr.ph.i.i.i, label %_ZNK4llvm12MachineInstr6isCallENS0_9QueryTypeE.exit.thread, !llvm.loop !21

_ZNK4llvm12MachineInstr6isCallENS0_9QueryTypeE.exit: ; preds = %.lr.ph.i.i.i, %27
  %50 = icmp eq i32 %1, 2
  br i1 %50, label %_ZNK4llvm12MachineInstr6isCallENS0_9QueryTypeE.exit.thread, label %_ZNK4llvm12MachineInstr6isCallENS0_9QueryTypeE.exit.thread5

_ZNK4llvm12MachineInstr6isCallENS0_9QueryTypeE.exit.thread: ; preds = %42, %.split.split.us.i.i.i, %11, %_ZNK4llvm12MachineInstr6isCallENS0_9QueryTypeE.exit
  %51 = getelementptr inbounds nuw i8, ptr %0, i64 68
  %52 = load i16, ptr %51, align 4
  %53 = icmp ult i16 %52, 32
  br i1 %53, label %switch.lookup, label %_ZNK4llvm12MachineInstr6isCallENS0_9QueryTypeE.exit.thread5

switch.lookup:                                    ; preds = %_ZNK4llvm12MachineInstr6isCallENS0_9QueryTypeE.exit.thread
  %switch.cast = zext nneg i16 %52 to i32
  %switch.downshift = lshr i32 1912602623, %switch.cast
  %switch.masked = trunc i32 %switch.downshift to i1
  br label %_ZNK4llvm12MachineInstr6isCallENS0_9QueryTypeE.exit.thread5

_ZNK4llvm12MachineInstr6isCallENS0_9QueryTypeE.exit.thread5: ; preds = %23, %_ZNK4llvm12MachineInstr6isCallENS0_9QueryTypeE.exit.thread, %switch.lookup, %17, %11, %_ZNK4llvm12MachineInstr6isCallENS0_9QueryTypeE.exit
  %.0 = phi i1 [ false, %_ZNK4llvm12MachineInstr6isCallENS0_9QueryTypeE.exit ], [ false, %11 ], [ false, %17 ], [ %switch.masked, %switch.lookup ], [ true, %_ZNK4llvm12MachineInstr6isCallENS0_9QueryTypeE.exit.thread ], [ false, %23 ]
  ret i1 %.0
}